; Function Attrs: mustprogress uwtable
define noundef i32 @_ZN6google8protobuf2io15FileInputStream22CopyingFileInputStream4ReadEPvi(ptr nocapture noundef nonnull align 8 dereferenceable(21) %0, ptr nocapture noundef %1, i32 noundef %2) unnamed_addr #3 align 2 personality ptr @__gxx_personality_v0 {
  %4 = alloca %"class.google::protobuf::internal::LogMessage", align 8
  %5 = alloca %"class.google::protobuf::internal::LogFinisher", align 1
  %6 = getelementptr inbounds i8, ptr %0, i64 13
  %7 = load i8, ptr %6, align 1
  %8 = trunc i8 %7 to i1
  br i1 %8, label %9, label %.critedge10

9:                                                ; preds = %3
  call void @_ZN6google8protobuf8internal10LogMessageC1ENS0_8LogLevelEPKci(ptr noundef nonnull align 8 dereferenceable(56) %4, i32 noundef 3, ptr noundef nonnull @.str, i32 noundef 132)
  %10 = invoke noundef nonnull align 8 dereferenceable(56) ptr @_ZN6google8protobuf8internal10LogMessagelsEPKc(ptr noundef nonnull align 8 dereferenceable(56) %4, ptr noundef nonnull @.str.2)
          to label %11 unwind label %25

11:                                               ; preds = %9
  invoke void @_ZN6google8protobuf8internal11LogFinisheraSERNS1_10LogMessageE(ptr noundef nonnull align 1 dereferenceable(1) %5, ptr noundef nonnull align 8 dereferenceable(56) %10)
          to label %12 unwind label %25

12:                                               ; preds = %11
  call void @_ZN6google8protobuf8internal10LogMessageD1Ev(ptr noundef nonnull align 8 dereferenceable(56) %4) #12
  br label %.critedge10

.critedge10:                                      ; preds = %3, %12
  %13 = getelementptr inbounds i8, ptr %0, i64 8
  %14 = sext i32 %2 to i64
  br label %15

15:                                               ; preds = %20, %.critedge10
  %16 = load i32, ptr %13, align 8
  %17 = call i64 @read(i32 noundef %16, ptr noundef %1, i64 noundef %14)
  %18 = trunc i64 %17 to i32
  %19 = icmp slt i32 %18, 0
  br i1 %19, label %20, label %.critedge11

20:                                               ; preds = %15
  %21 = tail call ptr @__errno_location() #13
  %22 = load i32, ptr %21, align 4
  %23 = icmp eq i32 %22, 4
  br i1 %23, label %15, label %.critedge, !llvm.loop !6

.critedge:                                        ; preds = %20
  %24 = getelementptr inbounds i8, ptr %0, i64 16
  store i32 %22, ptr %24, align 8
  br label %.critedge11

25:                                               ; preds = %11, %9
  %26 = landingpad { ptr, i32 }
          cleanup
  call void @_ZN6google8protobuf8internal10LogMessageD1Ev(ptr noundef nonnull align 8 dereferenceable(56) %4) #12
  resume { ptr, i32 } %26

.critedge11:                                      ; preds = %15, %.critedge
  ret i32 %18
}